; Function Attrs: nounwind uwtable
define void @trav_info_add(ptr noundef captures(address_is_null) %0, ptr noundef readonly captures(none) %1, i32 noundef %2) local_unnamed_addr #1 {
  %.not = icmp eq ptr %0, null
  br i1 %.not, label %32, label %4

4:                                                ; preds = %3
  %5 = getelementptr inbounds nuw i8, ptr %0, i64 8
  %6 = load i64, ptr %5, align 8, !tbaa !7
  %7 = load i64, ptr %0, align 8, !tbaa !16
  %8 = icmp eq i64 %6, %7
  br i1 %8, label %9, label %._crit_edge

._crit_edge:                                      ; preds = %4
  %.phi.trans.insert = getelementptr inbounds nuw i8, ptr %0, i64 32
  %.pre21 = load ptr, ptr %.phi.trans.insert, align 8, !tbaa !17
  br label %15

9:                                                ; preds = %4
  %10 = shl i64 %6, 1
  %spec.select = tail call i64 @llvm.umax.i64(i64 %10, i64 1)
  store i64 %spec.select, ptr %0, align 8, !tbaa !16
  %11 = getelementptr inbounds nuw i8, ptr %0, i64 32
  %12 = load ptr, ptr %11, align 8, !tbaa !17
  %13 = mul i64 %spec.select, 40
  %14 = tail call ptr @realloc(ptr noundef %12, i64 noundef %13) #17
  store ptr %14, ptr %11, align 8, !tbaa !17
  %.pre = load i64, ptr %5, align 8, !tbaa !7
  br label %15

15:                                               ; preds = %._crit_edge, %9
  %16 = phi ptr [ %14, %9 ], [ %.pre21, %._crit_edge ]
  %17 = phi i64 [ %.pre, %9 ], [ %6, %._crit_edge ]
  %18 = add i64 %17, 1
  store i64 %18, ptr %5, align 8, !tbaa !7
  %19 = tail call noalias ptr @strdup(ptr noundef %1) #18
  %20 = getelementptr inbounds nuw %struct.trav_path_t, ptr %16, i64 %17
  store ptr %19, ptr %20, align 8, !tbaa !18
  %21 = getelementptr inbounds nuw %struct.trav_path_t, ptr %16, i64 %17, i32 1
  store i32 %2, ptr %21, align 8, !tbaa !21
  %22 = getelementptr inbounds nuw %struct.trav_path_t, ptr %16, i64 %17, i32 3
  store i64 0, ptr %22, align 8, !tbaa !22
  %23 = getelementptr inbounds nuw %struct.trav_path_t, ptr %16, i64 %17, i32 2
  %24 = load i8, ptr @H5_libinit_g, align 1, !tbaa !23, !range !24, !noundef !25
  %25 = trunc nuw i8 %24 to i1
  %26 = load i8, ptr @H5_libterm_g, align 1, !range !24
  %27 = trunc nuw i8 %26 to i1
  %28 = select i1 %25, i1 true, i1 %27
  br i1 %28, label %31, label %29, !prof !26

29:                                               ; preds = %15
  %30 = tail call i32 @H5open() #18
  br label %31

31:                                               ; preds = %15, %29
  tail call void @llvm.memcpy.p0.p0.i64(ptr noundef nonnull align 4 dereferenceable(16) %23, ptr noundef nonnull align 1 dereferenceable(16) @H5O_TOKEN_UNDEF_g, i64 16, i1 false), !tbaa.struct !27
  br label %32

32:                                               ; preds = %31, %3
  ret void
}